; Function Attrs: mustprogress nofree norecurse nosync nounwind willreturn memory(read, argmem: readwrite, inaccessiblemem: none) uwtable
define void @stream_skip(ptr noundef captures(none) initializes((8, 16)) %0, i64 noundef %1) local_unnamed_addr #2 {
  %3 = getelementptr inbounds nuw i8, ptr %0, i64 16
  %4 = load ptr, ptr %3, align 8
  %5 = getelementptr inbounds nuw i8, ptr %0, i64 24
  %6 = load ptr, ptr %5, align 8
  %7 = ptrtoint ptr %4 to i64
  %8 = ptrtoint ptr %6 to i64
  %9 = sub i64 %7, %8
  %10 = shl i64 %9, 3
  %11 = load i64, ptr %0, align 8
  %12 = sub i64 %10, %11
  %13 = add i64 %12, %1
  %14 = and i64 %13, 63
  %15 = lshr i64 %13, 6
  %16 = getelementptr inbounds nuw i64, ptr %6, i64 %15
  store ptr %16, ptr %3, align 8
  %.not.i = icmp eq i64 %14, 0
  br i1 %.not.i, label %stream_rseek.exit, label %17

17:                                               ; preds = %2
  %18 = getelementptr inbounds nuw i8, ptr %16, i64 8
  store ptr %18, ptr %3, align 8
  %19 = load i64, ptr %16, align 8
  %20 = lshr i64 %19, %14
  %21 = sub nuw nsw i64 64, %14
  br label %stream_rseek.exit

stream_rseek.exit:                                ; preds = %2, %17
  %.sink.i = phi i64 [ %20, %17 ], [ 0, %2 ]
  %storemerge.i = phi i64 [ %21, %17 ], [ 0, %2 ]
  %22 = getelementptr inbounds nuw i8, ptr %0, i64 8
  store i64 %.sink.i, ptr %22, align 8
  store i64 %storemerge.i, ptr %0, align 8
  ret void
}